target datalayout = "e-m:e-p270:32:32-p271:32:32-p272:64:64-i64:64-i128:128-f80:128-n8:16:32:64-S128"
target triple = "x86_64-pc-linux-gnu"

%"class.std::__cxx11::basic_string" = type { %"struct.std::__cxx11::basic_string<char>::_Alloc_hider", i64, %union.anon }
%"struct.std::__cxx11::basic_string<char>::_Alloc_hider" = type { ptr }
%union.anon = type { i64, [8 x i8] }
%"class.std::allocator.6" = type { i8 }
%"class.std::__cxx11::basic_ostringstream" = type { %"class.std::basic_ostream.base", %"class.std::__cxx11::basic_stringbuf", %"class.std::basic_ios" }
%"class.std::basic_ostream.base" = type { ptr }
%"class.std::__cxx11::basic_stringbuf" = type { %"class.std::basic_streambuf", i32, %"class.std::__cxx11::basic_string" }
%"class.std::basic_streambuf" = type { ptr, ptr, ptr, ptr, ptr, ptr, ptr, %"class.std::locale" }
%"class.std::locale" = type { ptr }
%"class.std::basic_ios" = type { %"class.std::ios_base", ptr, i8, i8, ptr, ptr, ptr, ptr }
%"class.std::ios_base" = type { ptr, i64, i64, i32, i32, i32, ptr, %"struct.std::ios_base::_Words", [8 x %"struct.std::ios_base::_Words"], i32, ptr, %"class.std::locale" }
%"struct.std::ios_base::_Words" = type { ptr, i64 }

@.str.119 = private unnamed_addr constant [78 x i8] c"in Json::Value::duplicateAndPrefixStringValue(): length too big for prefixing\00", align 1
@.str.120 = private unnamed_addr constant [88 x i8] c"in Json::Value::duplicateAndPrefixStringValue(): Failed to allocate string value buffer\00", align 1

; Function Attrs: mustprogress uwtable
define internal noundef ptr @_ZN4JsonL29duplicateAndPrefixStringValueEPKcj(ptr noundef %0, i32 noundef %1) #1 personality ptr @__gxx_personality_v0 {
  %3 = alloca ptr, align 8
  %4 = alloca i32, align 4
  %5 = alloca %"class.std::__cxx11::basic_ostringstream", align 8
  %6 = alloca ptr, align 8
  %7 = alloca i32, align 4
  %8 = alloca %"class.std::__cxx11::basic_string", align 8
  %9 = alloca i32, align 4
  %10 = alloca ptr, align 8
  %11 = alloca %"class.std::__cxx11::basic_string", align 8
  %12 = alloca %"class.std::allocator.6", align 1
  store ptr %0, ptr %3, align 8
  store i32 %1, ptr %4, align 4
  %13 = load i32, ptr %4, align 4
  %14 = zext i32 %13 to i64
  %15 = icmp ule i64 %14, 2147483642
  br i1 %15, label %30, label %16

16:                                               ; preds = %2
  call void @_ZNSt7__cxx1119basic_ostringstreamIcSt11char_traitsIcESaIcEEC1Ev(ptr noundef nonnull align 8 dereferenceable(112) %5)
  %17 = invoke noundef nonnull align 8 dereferenceable(8) ptr @_ZStlsISt11char_traitsIcEERSt13basic_ostreamIcT_ES5_PKc(ptr noundef nonnull align 8 dereferenceable(8) %5, ptr noundef @.str.119)
          to label %18 unwind label %21

18:                                               ; preds = %16
  invoke void @_ZNKSt7__cxx1119basic_ostringstreamIcSt11char_traitsIcESaIcEE3strEv(ptr dead_on_unwind writable sret(%"class.std::__cxx11::basic_string") align 8 %8, ptr noundef nonnull align 8 dereferenceable(112) %5)
          to label %19 unwind label %21

19:                                               ; preds = %18
  invoke void @_ZN4Json15throwLogicErrorERKNSt7__cxx1112basic_stringIcSt11char_traitsIcESaIcEEE(ptr noundef nonnull align 8 dereferenceable(32) %8) #18
          to label %20 unwind label %25

20:                                               ; preds = %19
  unreachable

21:                                               ; preds = %18, %16
  %22 = landingpad { ptr, i32 }
          cleanup
  %23 = extractvalue { ptr, i32 } %22, 0
  store ptr %23, ptr %6, align 8
  %24 = extractvalue { ptr, i32 } %22, 1
  store i32 %24, ptr %7, align 4
  br label %29

25:                                               ; preds = %19
  %26 = landingpad { ptr, i32 }
          cleanup
  %27 = extractvalue { ptr, i32 } %26, 0
  store ptr %27, ptr %6, align 8
  %28 = extractvalue { ptr, i32 } %26, 1
  store i32 %28, ptr %7, align 4
  call void @_ZNSt7__cxx1112basic_stringIcSt11char_traitsIcESaIcEED1Ev(ptr noundef nonnull align 8 dereferenceable(32) %8) #10
  br label %29

29:                                               ; preds = %25, %21
  call void @_ZNSt7__cxx1119basic_ostringstreamIcSt11char_traitsIcESaIcEED1Ev(ptr noundef nonnull align 8 dereferenceable(112) %5) #10
  br label %65

30:                                               ; preds = %2
  %31 = load i32, ptr %4, align 4
  %32 = add i32 %31, 4
  %33 = add i32 %32, 1
  store i32 %33, ptr %9, align 4
  %34 = load i32, ptr %9, align 4
  %35 = zext i32 %34 to i64
  %36 = call noalias ptr @malloc(i64 noundef %35) #22
  store ptr %36, ptr %10, align 8
  %37 = load ptr, ptr %10, align 8
  %38 = icmp eq ptr %37, null
  br i1 %38, label %39, label %51

39:                                               ; preds = %30
  call void @_ZNSaIcEC1Ev(ptr noundef nonnull align 1 dereferenceable(1) %12) #10
  invoke void @_ZNSt7__cxx1112basic_stringIcSt11char_traitsIcESaIcEEC1EPKcRKS3_(ptr noundef nonnull align 8 dereferenceable(32) %11, ptr noundef @.str.120, ptr noundef nonnull align 1 dereferenceable(1) %12)
          to label %40 unwind label %42

40:                                               ; preds = %39
  invoke void @_ZN4Json17throwRuntimeErrorERKNSt7__cxx1112basic_stringIcSt11char_traitsIcESaIcEEE(ptr noundef nonnull align 8 dereferenceable(32) %11) #18
          to label %41 unwind label %46

41:                                               ; preds = %40
  unreachable

42:                                               ; preds = %39
  %43 = landingpad { ptr, i32 }
          cleanup
  %44 = extractvalue { ptr, i32 } %43, 0
  store ptr %44, ptr %6, align 8
  %45 = extractvalue { ptr, i32 } %43, 1
  store i32 %45, ptr %7, align 4
  br label %50

46:                                               ; preds = %40
  %47 = landingpad { ptr, i32 }
          cleanup
  %48 = extractvalue { ptr, i32 } %47, 0
  store ptr %48, ptr %6, align 8
  %49 = extractvalue { ptr, i32 } %47, 1
  store i32 %49, ptr %7, align 4
  call void @_ZNSt7__cxx1112basic_stringIcSt11char_traitsIcESaIcEED1Ev(ptr noundef nonnull align 8 dereferenceable(32) %11) #10
  br label %50

50:                                               ; preds = %46, %42
  call void @_ZNSaIcED1Ev(ptr noundef nonnull align 1 dereferenceable(1) %12) #10
  br label %65

51:                                               ; preds = %30
  %52 = load i32, ptr %4, align 4
  %53 = load ptr, ptr %10, align 8
  store i32 %52, ptr %53, align 4
  %54 = load ptr, ptr %10, align 8
  %55 = getelementptr inbounds i8, ptr %54, i64 4
  %56 = load ptr, ptr %3, align 8
  %57 = load i32, ptr %4, align 4
  %58 = zext i32 %57 to i64
  call void @llvm.memcpy.p0.p0.i64(ptr align 1 %55, ptr align 1 %56, i64 %58, i1 false)
  %59 = load ptr, ptr %10, align 8
  %60 = load i32, ptr %9, align 4
  %61 = sub i32 %60, 1
  %62 = zext i32 %61 to i64
  %63 = getelementptr inbounds i8, ptr %59, i64 %62
  store i8 0, ptr %63, align 1
  %64 = load ptr, ptr %10, align 8
  ret ptr %64

65:                                               ; preds = %50, %29
  %66 = load ptr, ptr %6, align 8
  %67 = load i32, ptr %7, align 4
  %68 = insertvalue { ptr, i32 } poison, ptr %66, 0
  %69 = insertvalue { ptr, i32 } %68, i32 %67, 1
  resume { ptr, i32 } %69
}