; Function Attrs: mustprogress uwtable
define internal fastcc noalias noundef ptr @_ZN4JsonL29duplicateAndPrefixStringValueEPKcj(ptr nocapture noundef readonly %0, i32 noundef %1) unnamed_addr #2 personality ptr @__gxx_personality_v0 {
  %3 = alloca %"class.std::__cxx11::basic_ostringstream", align 8
  %4 = alloca %"class.std::__cxx11::basic_string", align 8
  %5 = alloca %"class.std::__cxx11::basic_string", align 8
  %6 = alloca %"class.std::allocator.6", align 1
  %7 = icmp ult i32 %1, 2147483643
  br i1 %7, label %18, label %8

8:                                                ; preds = %2
  call void @_ZNSt7__cxx1119basic_ostringstreamIcSt11char_traitsIcESaIcEEC1Ev(ptr noundef nonnull align 8 dereferenceable(112) %3)
  %9 = invoke noundef nonnull align 8 dereferenceable(8) ptr @_ZStlsISt11char_traitsIcEERSt13basic_ostreamIcT_ES5_PKc(ptr noundef nonnull align 8 dereferenceable(8) %3, ptr noundef nonnull @.str.119)
          to label %10 unwind label %13

10:                                               ; preds = %8
  invoke void @_ZNKSt7__cxx1119basic_ostringstreamIcSt11char_traitsIcESaIcEE3strEv(ptr dead_on_unwind nonnull writable sret(%"class.std::__cxx11::basic_string") align 8 %4, ptr noundef nonnull align 8 dereferenceable(112) %3)
          to label %11 unwind label %13

11:                                               ; preds = %10
  invoke void @_ZN4Json15throwLogicErrorERKNSt7__cxx1112basic_stringIcSt11char_traitsIcESaIcEEE(ptr noundef nonnull align 8 dereferenceable(32) %4) #43
          to label %12 unwind label %15

12:                                               ; preds = %11
  unreachable

13:                                               ; preds = %10, %8
  %14 = landingpad { ptr, i32 }
          cleanup
  br label %17

15:                                               ; preds = %11
  %16 = landingpad { ptr, i32 }
          cleanup
  call void @_ZNSt7__cxx1112basic_stringIcSt11char_traitsIcESaIcEED1Ev(ptr noundef nonnull align 8 dereferenceable(32) %4) #39
  br label %17

17:                                               ; preds = %15, %13
  %.pn = phi { ptr, i32 } [ %16, %15 ], [ %14, %13 ]
  call void @_ZNSt7__cxx1119basic_ostringstreamIcSt11char_traitsIcESaIcEED1Ev(ptr noundef nonnull align 8 dereferenceable(112) %3) #39
  br label %36

18:                                               ; preds = %2
  %19 = add nuw nsw i32 %1, 5
  %20 = zext nneg i32 %19 to i64
  %21 = tail call noalias ptr @malloc(i64 noundef %20) #46
  %22 = icmp eq ptr %21, null
  br i1 %22, label %23, label %31

23:                                               ; preds = %18
  call void @_ZNSaIcEC1Ev(ptr noundef nonnull align 1 dereferenceable(1) %6) #39
  invoke void @_ZNSt7__cxx1112basic_stringIcSt11char_traitsIcESaIcEEC1EPKcRKS3_(ptr noundef nonnull align 8 dereferenceable(32) %5, ptr noundef nonnull @.str.120, ptr noundef nonnull align 1 dereferenceable(1) %6)
          to label %24 unwind label %26

24:                                               ; preds = %23
  invoke void @_ZN4Json17throwRuntimeErrorERKNSt7__cxx1112basic_stringIcSt11char_traitsIcESaIcEEE(ptr noundef nonnull align 8 dereferenceable(32) %5) #43
          to label %25 unwind label %28

25:                                               ; preds = %24
  unreachable

26:                                               ; preds = %23
  %27 = landingpad { ptr, i32 }
          cleanup
  br label %30

28:                                               ; preds = %24
  %29 = landingpad { ptr, i32 }
          cleanup
  call void @_ZNSt7__cxx1112basic_stringIcSt11char_traitsIcESaIcEED1Ev(ptr noundef nonnull align 8 dereferenceable(32) %5) #39
  br label %30

30:                                               ; preds = %28, %26
  %.pn19 = phi { ptr, i32 } [ %29, %28 ], [ %27, %26 ]
  call void @_ZNSaIcED1Ev(ptr noundef nonnull align 1 dereferenceable(1) %6) #39
  br label %36

31:                                               ; preds = %18
  %32 = zext nneg i32 %1 to i64
  store i32 %1, ptr %21, align 4
  %33 = getelementptr inbounds i8, ptr %21, i64 4
  tail call void @llvm.memcpy.p0.p0.i64(ptr nonnull align 1 %33, ptr align 1 %0, i64 %32, i1 false)
  %34 = getelementptr i8, ptr %21, i64 %32
  %35 = getelementptr i8, ptr %34, i64 4
  store i8 0, ptr %35, align 1
  ret ptr %21

36:                                               ; preds = %30, %17
  %.pn19.pn = phi { ptr, i32 } [ %.pn19, %30 ], [ %.pn, %17 ]
  resume { ptr, i32 } %.pn19.pn
}